; Function Attrs: mustprogress uwtable
define void @_ZN6icu_7511ICUNotifier11addListenerEPKNS_13EventListenerER10UErrorCode(ptr noundef nonnull align 8 dereferenceable(16) %this, ptr noundef %l, ptr noundef nonnull align 4 dereferenceable(4) %status) unnamed_addr #7 align 2 personality ptr @__gxx_personality_v0 {
entry:
  %0 = load i32, ptr %status, align 4
  %cmp.i = icmp sgt i32 %0, 0
  br i1 %cmp.i, label %if.end37, label %if.then

if.then:                                          ; preds = %entry
  %cmp = icmp eq ptr %l, null
  br i1 %cmp, label %if.then2, label %if.end

if.then2:                                         ; preds = %if.then
  store i32 1, ptr %status, align 4
  br label %if.end37

if.end:                                           ; preds = %if.then
  %vtable = load ptr, ptr %this, align 8
  %vfn = getelementptr inbounds i8, ptr %vtable, i64 40
  %1 = load ptr, ptr %vfn, align 8
  %call3 = tail call noundef signext i8 %1(ptr noundef nonnull align 8 dereferenceable(16) %this, ptr noundef nonnull align 8 dereferenceable(8) %l)
  %tobool4.not = icmp eq i8 %call3, 0
  br i1 %tobool4.not, label %if.end37, label %if.then5

if.then5:                                         ; preds = %if.end
  tail call void @umtx_lock_75(ptr noundef nonnull @_ZN6icu_75L10notifyLockE)
  %listeners = getelementptr inbounds i8, ptr %this, i64 8
  %2 = load ptr, ptr %listeners, align 8
  %cmp6 = icmp eq ptr %2, null
  br i1 %cmp6, label %if.then7, label %if.else

if.then7:                                         ; preds = %if.then5
  %call8 = tail call noundef ptr @_ZN6icu_757UMemorynwEm(i64 noundef 40) #9
  %new.isnull = icmp eq ptr %call8, null
  br i1 %new.isnull, label %new.cont, label %new.notnull

new.notnull:                                      ; preds = %if.then7
  invoke void @_ZN6icu_757UVectorC1EiR10UErrorCode(ptr noundef nonnull align 8 dereferenceable(40) %call8, i32 noundef 5, ptr noundef nonnull align 4 dereferenceable(4) %status)
          to label %invoke.cont10 unwind label %lpad

new.cont:                                         ; preds = %if.then7
  %3 = load i32, ptr %status, align 4
  %cmp.i.i = icmp sgt i32 %3, 0
  br i1 %cmp.i.i, label %cleanup33, label %if.then.i

if.then.i:                                        ; preds = %new.cont
  store i32 7, ptr %status, align 4
  br label %cleanup33

invoke.cont10:                                    ; preds = %new.notnull
  %.pre = load i32, ptr %status, align 4
  %4 = icmp slt i32 %.pre, 1
  br i1 %4, label %_ZN6icu_7512LocalPointerINS_7UVectorEED2Ev.exit, label %delete.notnull.i16

lpad:                                             ; preds = %new.notnull
  %5 = landingpad { ptr, i32 }
          cleanup
  tail call void @_ZN6icu_757UMemorydlEPv(ptr noundef nonnull %call8) #9
  br label %ehcleanup

lpad9.loopexit:                                   ; preds = %for.body
  %lpad.loopexit = landingpad { ptr, i32 }
          cleanup
  br label %ehcleanup

lpad9.loopexit.split-lp:                          ; preds = %if.end30
  %lpad.loopexit.split-lp = landingpad { ptr, i32 }
          cleanup
  br label %ehcleanup

_ZN6icu_7512LocalPointerINS_7UVectorEED2Ev.exit:  ; preds = %invoke.cont10
  store ptr %call8, ptr %listeners, align 8
  br label %if.end30

if.else:                                          ; preds = %if.then5
  %count.i = getelementptr inbounds i8, ptr %2, i64 8
  %6 = load i32, ptr %count.i, align 8
  %cmp2328 = icmp sgt i32 %6, 0
  br i1 %cmp2328, label %for.body, label %if.end30

for.cond:                                         ; preds = %invoke.cont25
  %inc = add nuw nsw i32 %i.029, 1
  %exitcond.not = icmp eq i32 %inc, %6
  br i1 %exitcond.not, label %if.end30.loopexit, label %for.body, !llvm.loop !4

for.body:                                         ; preds = %if.else, %for.cond
  %i.029 = phi i32 [ %inc, %for.cond ], [ 0, %if.else ]
  %7 = load ptr, ptr %listeners, align 8
  %call26 = invoke noundef ptr @_ZNK6icu_757UVector9elementAtEi(ptr noundef nonnull align 8 dereferenceable(40) %7, i32 noundef %i.029)
          to label %invoke.cont25 unwind label %lpad9.loopexit

invoke.cont25:                                    ; preds = %for.body
  %cmp27 = icmp eq ptr %call26, %l
  br i1 %cmp27, label %cleanup33, label %for.cond

if.end30.loopexit:                                ; preds = %for.cond
  %.pre30 = load ptr, ptr %listeners, align 8
  br label %if.end30

if.end30:                                         ; preds = %if.end30.loopexit, %if.else, %_ZN6icu_7512LocalPointerINS_7UVectorEED2Ev.exit
  %8 = phi ptr [ %.pre30, %if.end30.loopexit ], [ %2, %if.else ], [ %call8, %_ZN6icu_7512LocalPointerINS_7UVectorEED2Ev.exit ]
  invoke void @_ZN6icu_757UVector10addElementEPvR10UErrorCode(ptr noundef nonnull align 8 dereferenceable(40) %8, ptr noundef nonnull %l, ptr noundef nonnull align 4 dereferenceable(4) %status)
          to label %cleanup33 unwind label %lpad9.loopexit.split-lp

delete.notnull.i16:                               ; preds = %invoke.cont10
  %vtable.i17 = load ptr, ptr %call8, align 8
  %vfn.i18 = getelementptr inbounds i8, ptr %vtable.i17, i64 8
  %9 = load ptr, ptr %vfn.i18, align 8
  tail call void %9(ptr noundef nonnull align 8 dereferenceable(40) %call8) #9
  br label %cleanup33

cleanup33:                                        ; preds = %invoke.cont25, %if.then.i, %new.cont, %delete.notnull.i16, %if.end30
  invoke void @umtx_unlock_75(ptr noundef nonnull @_ZN6icu_75L10notifyLockE)
          to label %if.end37 unwind label %terminate.lpad.i

terminate.lpad.i:                                 ; preds = %cleanup33
  %10 = landingpad { ptr, i32 }
          catch ptr null
  %11 = extractvalue { ptr, i32 } %10, 0
  tail call void @__clang_call_terminate(ptr %11) #10
  unreachable

ehcleanup:                                        ; preds = %lpad9.loopexit, %lpad9.loopexit.split-lp, %lpad
  %.pn = phi { ptr, i32 } [ %5, %lpad ], [ %lpad.loopexit, %lpad9.loopexit ], [ %lpad.loopexit.split-lp, %lpad9.loopexit.split-lp ]
  invoke void @umtx_unlock_75(ptr noundef nonnull @_ZN6icu_75L10notifyLockE)
          to label %_ZN6icu_755MutexD2Ev.exit21 unwind label %terminate.lpad.i20

terminate.lpad.i20:                               ; preds = %ehcleanup
  %12 = landingpad { ptr, i32 }
          catch ptr null
  %13 = extractvalue { ptr, i32 } %12, 0
  tail call void @__clang_call_terminate(ptr %13) #10
  unreachable

_ZN6icu_755MutexD2Ev.exit21:                      ; preds = %ehcleanup
  resume { ptr, i32 } %.pn

if.end37:                                         ; preds = %cleanup33, %if.end, %if.then2, %entry
  ret void
}